target datalayout = "e-m:e-p270:32:32-p271:32:32-p272:64:64-i64:64-i128:128-f80:128-n8:16:32:64-S128"
target triple = "x86_64-pc-linux-gnu"

; Function Attrs: inlinehint nounwind uwtable
define internal i32 @toLitCond(i32 noundef %0, i32 noundef %1) #3 {
  %3 = alloca i32, align 4
  %4 = alloca i32, align 4
  store i32 %0, ptr %3, align 4, !tbaa !3
  store i32 %1, ptr %4, align 4, !tbaa !3
  %5 = load i32, ptr %3, align 4, !tbaa !3
  %6 = load i32, ptr %3, align 4, !tbaa !3
  %7 = add nsw i32 %5, %6
  %8 = load i32, ptr %4, align 4, !tbaa !3
  %9 = icmp ne i32 %8, 0
  %10 = zext i1 %9 to i32
  %11 = add nsw i32 %7, %10
  ret i32 %11
}

; Function Attrs: inlinehint nounwind uwtable
define internal i32 @sat_solver_add_mux41(ptr noundef %0, i32 noundef %1, i32 noundef %2, i32 noundef %3, i32 noundef %4, i32 noundef %5, i32 noundef %6, i32 noundef %7) #3 {
  %9 = alloca ptr, align 8
  %10 = alloca i32, align 4
  %11 = alloca i32, align 4
  %12 = alloca i32, align 4
  %13 = alloca i32, align 4
  %14 = alloca i32, align 4
  %15 = alloca i32, align 4
  %16 = alloca i32, align 4
  %17 = alloca [4 x i32], align 16
  %18 = alloca i32, align 4
  store ptr %0, ptr %9, align 8, !tbaa !7
  store i32 %1, ptr %10, align 4, !tbaa !3
  store i32 %2, ptr %11, align 4, !tbaa !3
  store i32 %3, ptr %12, align 4, !tbaa !3
  store i32 %4, ptr %13, align 4, !tbaa !3
  store i32 %5, ptr %14, align 4, !tbaa !3
  store i32 %6, ptr %15, align 4, !tbaa !3
  store i32 %7, ptr %16, align 4, !tbaa !3
  call void @llvm.lifetime.start.p0(i64 16, ptr %17) #7
  call void @llvm.lifetime.start.p0(i64 4, ptr %18) #7
  %19 = load i32, ptr %13, align 4, !tbaa !3
  %20 = call i32 @toLitCond(i32 noundef %19, i32 noundef 1)
  %21 = getelementptr inbounds [4 x i32], ptr %17, i64 0, i64 0
  store i32 %20, ptr %21, align 16, !tbaa !3
  %22 = load i32, ptr %11, align 4, !tbaa !3
  %23 = call i32 @toLitCond(i32 noundef %22, i32 noundef 0)
  %24 = getelementptr inbounds [4 x i32], ptr %17, i64 0, i64 1
  store i32 %23, ptr %24, align 4, !tbaa !3
  %25 = load i32, ptr %12, align 4, !tbaa !3
  %26 = call i32 @toLitCond(i32 noundef %25, i32 noundef 0)
  %27 = getelementptr inbounds [4 x i32], ptr %17, i64 0, i64 2
  store i32 %26, ptr %27, align 8, !tbaa !3
  %28 = load i32, ptr %10, align 4, !tbaa !3
  %29 = call i32 @toLitCond(i32 noundef %28, i32 noundef 0)
  %30 = getelementptr inbounds [4 x i32], ptr %17, i64 0, i64 3
  store i32 %29, ptr %30, align 4, !tbaa !3
  %31 = load ptr, ptr %9, align 8, !tbaa !7
  %32 = getelementptr inbounds [4 x i32], ptr %17, i64 0, i64 0
  %33 = getelementptr inbounds [4 x i32], ptr %17, i64 0, i64 0
  %34 = getelementptr inbounds i32, ptr %33, i64 4
  %35 = call i32 @sat_solver_addclause(ptr noundef %31, ptr noundef %32, ptr noundef %34)
  store i32 %35, ptr %18, align 4, !tbaa !3
  %36 = load i32, ptr %14, align 4, !tbaa !3
  %37 = call i32 @toLitCond(i32 noundef %36, i32 noundef 1)
  %38 = getelementptr inbounds [4 x i32], ptr %17, i64 0, i64 0
  store i32 %37, ptr %38, align 16, !tbaa !3
  %39 = load i32, ptr %11, align 4, !tbaa !3
  %40 = call i32 @toLitCond(i32 noundef %39, i32 noundef 1)
  %41 = getelementptr inbounds [4 x i32], ptr %17, i64 0, i64 1
  store i32 %40, ptr %41, align 4, !tbaa !3
  %42 = load i32, ptr %12, align 4, !tbaa !3
  %43 = call i32 @toLitCond(i32 noundef %42, i32 noundef 0)
  %44 = getelementptr inbounds [4 x i32], ptr %17, i64 0, i64 2
  store i32 %43, ptr %44, align 8, !tbaa !3
  %45 = load i32, ptr %10, align 4, !tbaa !3
  %46 = call i32 @toLitCond(i32 noundef %45, i32 noundef 0)
  %47 = getelementptr inbounds [4 x i32], ptr %17, i64 0, i64 3
  store i32 %46, ptr %47, align 4, !tbaa !3
  %48 = load ptr, ptr %9, align 8, !tbaa !7
  %49 = getelementptr inbounds [4 x i32], ptr %17, i64 0, i64 0
  %50 = getelementptr inbounds [4 x i32], ptr %17, i64 0, i64 0
  %51 = getelementptr inbounds i32, ptr %50, i64 4
  %52 = call i32 @sat_solver_addclause(ptr noundef %48, ptr noundef %49, ptr noundef %51)
  store i32 %52, ptr %18, align 4, !tbaa !3
  %53 = load i32, ptr %15, align 4, !tbaa !3
  %54 = call i32 @toLitCond(i32 noundef %53, i32 noundef 1)
  %55 = getelementptr inbounds [4 x i32], ptr %17, i64 0, i64 0
  store i32 %54, ptr %55, align 16, !tbaa !3
  %56 = load i32, ptr %11, align 4, !tbaa !3
  %57 = call i32 @toLitCond(i32 noundef %56, i32 noundef 0)
  %58 = getelementptr inbounds [4 x i32], ptr %17, i64 0, i64 1
  store i32 %57, ptr %58, align 4, !tbaa !3
  %59 = load i32, ptr %12, align 4, !tbaa !3
  %60 = call i32 @toLitCond(i32 noundef %59, i32 noundef 1)
  %61 = getelementptr inbounds [4 x i32], ptr %17, i64 0, i64 2
  store i32 %60, ptr %61, align 8, !tbaa !3
  %62 = load i32, ptr %10, align 4, !tbaa !3
  %63 = call i32 @toLitCond(i32 noundef %62, i32 noundef 0)
  %64 = getelementptr inbounds [4 x i32], ptr %17, i64 0, i64 3
  store i32 %63, ptr %64, align 4, !tbaa !3
  %65 = load ptr, ptr %9, align 8, !tbaa !7
  %66 = getelementptr inbounds [4 x i32], ptr %17, i64 0, i64 0
  %67 = getelementptr inbounds [4 x i32], ptr %17, i64 0, i64 0
  %68 = getelementptr inbounds i32, ptr %67, i64 4
  %69 = call i32 @sat_solver_addclause(ptr noundef %65, ptr noundef %66, ptr noundef %68)
  store i32 %69, ptr %18, align 4, !tbaa !3
  %70 = load i32, ptr %16, align 4, !tbaa !3
  %71 = call i32 @toLitCond(i32 noundef %70, i32 noundef 1)
  %72 = getelementptr inbounds [4 x i32], ptr %17, i64 0, i64 0
  store i32 %71, ptr %72, align 16, !tbaa !3
  %73 = load i32, ptr %11, align 4, !tbaa !3
  %74 = call i32 @toLitCond(i32 noundef %73, i32 noundef 1)
  %75 = getelementptr inbounds [4 x i32], ptr %17, i64 0, i64 1
  store i32 %74, ptr %75, align 4, !tbaa !3
  %76 = load i32, ptr %12, align 4, !tbaa !3
  %77 = call i32 @toLitCond(i32 noundef %76, i32 noundef 1)
  %78 = getelementptr inbounds [4 x i32], ptr %17, i64 0, i64 2
  store i32 %77, ptr %78, align 8, !tbaa !3
  %79 = load i32, ptr %10, align 4, !tbaa !3
  %80 = call i32 @toLitCond(i32 noundef %79, i32 noundef 0)
  %81 = getelementptr inbounds [4 x i32], ptr %17, i64 0, i64 3
  store i32 %80, ptr %81, align 4, !tbaa !3
  %82 = load ptr, ptr %9, align 8, !tbaa !7
  %83 = getelementptr inbounds [4 x i32], ptr %17, i64 0, i64 0
  %84 = getelementptr inbounds [4 x i32], ptr %17, i64 0, i64 0
  %85 = getelementptr inbounds i32, ptr %84, i64 4
  %86 = call i32 @sat_solver_addclause(ptr noundef %82, ptr noundef %83, ptr noundef %85)
  store i32 %86, ptr %18, align 4, !tbaa !3
  %87 = load i32, ptr %13, align 4, !tbaa !3
  %88 = call i32 @toLitCond(i32 noundef %87, i32 noundef 0)
  %89 = getelementptr inbounds [4 x i32], ptr %17, i64 0, i64 0
  store i32 %88, ptr %89, align 16, !tbaa !3
  %90 = load i32, ptr %11, align 4, !tbaa !3
  %91 = call i32 @toLitCond(i32 noundef %90, i32 noundef 0)
  %92 = getelementptr inbounds [4 x i32], ptr %17, i64 0, i64 1
  store i32 %91, ptr %92, align 4, !tbaa !3
  %93 = load i32, ptr %12, align 4, !tbaa !3
  %94 = call i32 @toLitCond(i32 noundef %93, i32 noundef 0)
  %95 = getelementptr inbounds [4 x i32], ptr %17, i64 0, i64 2
  store i32 %94, ptr %95, align 8, !tbaa !3
  %96 = load i32, ptr %10, align 4, !tbaa !3
  %97 = call i32 @toLitCond(i32 noundef %96, i32 noundef 1)
  %98 = getelementptr inbounds [4 x i32], ptr %17, i64 0, i64 3
  store i32 %97, ptr %98, align 4, !tbaa !3
  %99 = load ptr, ptr %9, align 8, !tbaa !7
  %100 = getelementptr inbounds [4 x i32], ptr %17, i64 0, i64 0
  %101 = getelementptr inbounds [4 x i32], ptr %17, i64 0, i64 0
  %102 = getelementptr inbounds i32, ptr %101, i64 4
  %103 = call i32 @sat_solver_addclause(ptr noundef %99, ptr noundef %100, ptr noundef %102)
  store i32 %103, ptr %18, align 4, !tbaa !3
  %104 = load i32, ptr %14, align 4, !tbaa !3
  %105 = call i32 @toLitCond(i32 noundef %104, i32 noundef 0)
  %106 = getelementptr inbounds [4 x i32], ptr %17, i64 0, i64 0
  store i32 %105, ptr %106, align 16, !tbaa !3
  %107 = load i32, ptr %11, align 4, !tbaa !3
  %108 = call i32 @toLitCond(i32 noundef %107, i32 noundef 1)
  %109 = getelementptr inbounds [4 x i32], ptr %17, i64 0, i64 1
  store i32 %108, ptr %109, align 4, !tbaa !3
  %110 = load i32, ptr %12, align 4, !tbaa !3
  %111 = call i32 @toLitCond(i32 noundef %110, i32 noundef 0)
  %112 = getelementptr inbounds [4 x i32], ptr %17, i64 0, i64 2
  store i32 %111, ptr %112, align 8, !tbaa !3
  %113 = load i32, ptr %10, align 4, !tbaa !3
  %114 = call i32 @toLitCond(i32 noundef %113, i32 noundef 1)
  %115 = getelementptr inbounds [4 x i32], ptr %17, i64 0, i64 3
  store i32 %114, ptr %115, align 4, !tbaa !3
  %116 = load ptr, ptr %9, align 8, !tbaa !7
  %117 = getelementptr inbounds [4 x i32], ptr %17, i64 0, i64 0
  %118 = getelementptr inbounds [4 x i32], ptr %17, i64 0, i64 0
  %119 = getelementptr inbounds i32, ptr %118, i64 4
  %120 = call i32 @sat_solver_addclause(ptr noundef %116, ptr noundef %117, ptr noundef %119)
  store i32 %120, ptr %18, align 4, !tbaa !3
  %121 = load i32, ptr %15, align 4, !tbaa !3
  %122 = call i32 @toLitCond(i32 noundef %121, i32 noundef 0)
  %123 = getelementptr inbounds [4 x i32], ptr %17, i64 0, i64 0
  store i32 %122, ptr %123, align 16, !tbaa !3
  %124 = load i32, ptr %11, align 4, !tbaa !3
  %125 = call i32 @toLitCond(i32 noundef %124, i32 noundef 0)
  %126 = getelementptr inbounds [4 x i32], ptr %17, i64 0, i64 1
  store i32 %125, ptr %126, align 4, !tbaa !3
  %127 = load i32, ptr %12, align 4, !tbaa !3
  %128 = call i32 @toLitCond(i32 noundef %127, i32 noundef 1)
  %129 = getelementptr inbounds [4 x i32], ptr %17, i64 0, i64 2
  store i32 %128, ptr %129, align 8, !tbaa !3
  %130 = load i32, ptr %10, align 4, !tbaa !3
  %131 = call i32 @toLitCond(i32 noundef %130, i32 noundef 1)
  %132 = getelementptr inbounds [4 x i32], ptr %17, i64 0, i64 3
  store i32 %131, ptr %132, align 4, !tbaa !3
  %133 = load ptr, ptr %9, align 8, !tbaa !7
  %134 = getelementptr inbounds [4 x i32], ptr %17, i64 0, i64 0
  %135 = getelementptr inbounds [4 x i32], ptr %17, i64 0, i64 0
  %136 = getelementptr inbounds i32, ptr %135, i64 4
  %137 = call i32 @sat_solver_addclause(ptr noundef %133, ptr noundef %134, ptr noundef %136)
  store i32 %137, ptr %18, align 4, !tbaa !3
  %138 = load i32, ptr %16, align 4, !tbaa !3
  %139 = call i32 @toLitCond(i32 noundef %138, i32 noundef 0)
  %140 = getelementptr inbounds [4 x i32], ptr %17, i64 0, i64 0
  store i32 %139, ptr %140, align 16, !tbaa !3
  %141 = load i32, ptr %11, align 4, !tbaa !3
  %142 = call i32 @toLitCond(i32 noundef %141, i32 noundef 1)
  %143 = getelementptr inbounds [4 x i32], ptr %17, i64 0, i64 1
  store i32 %142, ptr %143, align 4, !tbaa !3
  %144 = load i32, ptr %12, align 4, !tbaa !3
  %145 = call i32 @toLitCond(i32 noundef %144, i32 noundef 1)
  %146 = getelementptr inbounds [4 x i32], ptr %17, i64 0, i64 2
  store i32 %145, ptr %146, align 8, !tbaa !3
  %147 = load i32, ptr %10, align 4, !tbaa !3
  %148 = call i32 @toLitCond(i32 noundef %147, i32 noundef 1)
  %149 = getelementptr inbounds [4 x i32], ptr %17, i64 0, i64 3
  store i32 %148, ptr %149, align 4, !tbaa !3
  %150 = load ptr, ptr %9, align 8, !tbaa !7
  %151 = getelementptr inbounds [4 x i32], ptr %17, i64 0, i64 0
  %152 = getelementptr inbounds [4 x i32], ptr %17, i64 0, i64 0
  %153 = getelementptr inbounds i32, ptr %152, i64 4
  %154 = call i32 @sat_solver_addclause(ptr noundef %150, ptr noundef %151, ptr noundef %153)
  store i32 %154, ptr %18, align 4, !tbaa !3
  call void @llvm.lifetime.end.p0(i64 4, ptr %18) #7
  call void @llvm.lifetime.end.p0(i64 16, ptr %17) #7
  ret i32 8
}

; Function Attrs: nounwind uwtable
define ptr @If_ManSatBuildXYZ(i32 noundef %0) #0 {
  %2 = alloca i32, align 4
  %3 = alloca i32, align 4
  %4 = alloca i32, align 4
  %5 = alloca i32, align 4
  %6 = alloca i32, align 4
  %7 = alloca i32, align 4
  %8 = alloca i32, align 4
  %9 = alloca i32, align 4
  %10 = alloca i32, align 4
  %11 = alloca ptr, align 8
  store i32 %0, ptr %2, align 4, !tbaa !3
  call void @llvm.lifetime.start.p0(i64 4, ptr %3) #7
  %12 = load i32, ptr %2, align 4, !tbaa !3
  %13 = shl i32 1, %12
  store i32 %13, ptr %3, align 4, !tbaa !3
  call void @llvm.lifetime.start.p0(i64 4, ptr %4) #7
  %14 = load i32, ptr %2, align 4, !tbaa !3
  %15 = mul nsw i32 3, %14
  %16 = sub nsw i32 %15, 2
  %17 = shl i32 1, %16
  store i32 %17, ptr %4, align 4, !tbaa !3
  call void @llvm.lifetime.start.p0(i64 4, ptr %5) #7
  %18 = load i32, ptr %3, align 4, !tbaa !3
  %19 = mul nsw i32 3, %18
  %20 = load i32, ptr %4, align 4, !tbaa !3
  %21 = add nsw i32 %19, %20
  store i32 %21, ptr %5, align 4, !tbaa !3
  call void @llvm.lifetime.start.p0(i64 4, ptr %6) #7
  store i32 0, ptr %6, align 4, !tbaa !3
  call void @llvm.lifetime.start.p0(i64 4, ptr %7) #7
  %22 = load i32, ptr %3, align 4, !tbaa !3
  store i32 %22, ptr %7, align 4, !tbaa !3
  call void @llvm.lifetime.start.p0(i64 4, ptr %8) #7
  %23 = load i32, ptr %3, align 4, !tbaa !3
  %24 = mul nsw i32 2, %23
  store i32 %24, ptr %8, align 4, !tbaa !3
  call void @llvm.lifetime.start.p0(i64 4, ptr %9) #7
  call void @llvm.lifetime.start.p0(i64 4, ptr %10) #7
  %25 = load i32, ptr %3, align 4, !tbaa !3
  %26 = mul nsw i32 3, %25
  store i32 %26, ptr %10, align 4, !tbaa !3
  call void @llvm.lifetime.start.p0(i64 8, ptr %11) #7
  %27 = call ptr @sat_solver_new()
  store ptr %27, ptr %11, align 8, !tbaa !7
  %28 = load ptr, ptr %11, align 8, !tbaa !7
  %29 = load i32, ptr %5, align 4, !tbaa !3
  call void @sat_solver_setnvars(ptr noundef %28, i32 noundef %29)
  store i32 0, ptr %9, align 4, !tbaa !3
  br label %30

30:                                               ; preds = %84, %1
  %31 = load i32, ptr %9, align 4, !tbaa !3
  %32 = load i32, ptr %4, align 4, !tbaa !3
  %33 = icmp slt i32 %31, %32
  br i1 %33, label %34, label %87

34:                                               ; preds = %30
  %35 = load ptr, ptr %11, align 8, !tbaa !7
  %36 = load i32, ptr %10, align 4, !tbaa !3
  %37 = load i32, ptr %9, align 4, !tbaa !3
  %38 = add nsw i32 %36, %37
  %39 = load i32, ptr %6, align 4, !tbaa !3
  %40 = load i32, ptr %9, align 4, !tbaa !3
  %41 = load i32, ptr %3, align 4, !tbaa !3
  %42 = srem i32 %40, %41
  %43 = add nsw i32 %39, %42
  %44 = load i32, ptr %7, align 4, !tbaa !3
  %45 = load i32, ptr %9, align 4, !tbaa !3
  %46 = load i32, ptr %2, align 4, !tbaa !3
  %47 = ashr i32 %45, %46
  %48 = load i32, ptr %3, align 4, !tbaa !3
  %49 = srem i32 %47, %48
  %50 = add nsw i32 %44, %49
  %51 = load i32, ptr %8, align 4, !tbaa !3
  %52 = load i32, ptr %9, align 4, !tbaa !3
  %53 = load i32, ptr %2, align 4, !tbaa !3
  %54 = mul nsw i32 2, %53
  %55 = ashr i32 %52, %54
  %56 = mul nsw i32 4, %55
  %57 = add nsw i32 %51, %56
  %58 = add nsw i32 %57, 0
  %59 = load i32, ptr %8, align 4, !tbaa !3
  %60 = load i32, ptr %9, align 4, !tbaa !3
  %61 = load i32, ptr %2, align 4, !tbaa !3
  %62 = mul nsw i32 2, %61
  %63 = ashr i32 %60, %62
  %64 = mul nsw i32 4, %63
  %65 = add nsw i32 %59, %64
  %66 = add nsw i32 %65, 1
  %67 = load i32, ptr %8, align 4, !tbaa !3
  %68 = load i32, ptr %9, align 4, !tbaa !3
  %69 = load i32, ptr %2, align 4, !tbaa !3
  %70 = mul nsw i32 2, %69
  %71 = ashr i32 %68, %70
  %72 = mul nsw i32 4, %71
  %73 = add nsw i32 %67, %72
  %74 = add nsw i32 %73, 2
  %75 = load i32, ptr %8, align 4, !tbaa !3
  %76 = load i32, ptr %9, align 4, !tbaa !3
  %77 = load i32, ptr %2, align 4, !tbaa !3
  %78 = mul nsw i32 2, %77
  %79 = ashr i32 %76, %78
  %80 = mul nsw i32 4, %79
  %81 = add nsw i32 %75, %80
  %82 = add nsw i32 %81, 3
  %83 = call i32 @sat_solver_add_mux41(ptr noundef %35, i32 noundef %38, i32 noundef %43, i32 noundef %50, i32 noundef %58, i32 noundef %66, i32 noundef %74, i32 noundef %82)
  br label %84

84:                                               ; preds = %34
  %85 = load i32, ptr %9, align 4, !tbaa !3
  %86 = add nsw i32 %85, 1
  store i32 %86, ptr %9, align 4, !tbaa !3
  br label %30, !llvm.loop !12

87:                                               ; preds = %30
  %88 = load ptr, ptr %11, align 8, !tbaa !7
  call void @llvm.lifetime.end.p0(i64 8, ptr %11) #7
  call void @llvm.lifetime.end.p0(i64 4, ptr %10) #7
  call void @llvm.lifetime.end.p0(i64 4, ptr %9) #7
  call void @llvm.lifetime.end.p0(i64 4, ptr %8) #7
  call void @llvm.lifetime.end.p0(i64 4, ptr %7) #7
  call void @llvm.lifetime.end.p0(i64 4, ptr %6) #7
  call void @llvm.lifetime.end.p0(i64 4, ptr %5) #7
  call void @llvm.lifetime.end.p0(i64 4, ptr %4) #7
  call void @llvm.lifetime.end.p0(i64 4, ptr %3) #7
  ret ptr %88
}