; Function Attrs: nounwind uwtable
define noundef ptr @If_ManSatBuildXYZ(i32 noundef %0) local_unnamed_addr #0 {
  %2 = alloca [4 x i32], align 16
  %3 = shl nuw i32 1, %0
  %4 = mul nsw i32 %0, 3
  %5 = add nsw i32 %4, -2
  %6 = shl nuw i32 1, %5
  %7 = shl i32 3, %0
  %8 = add nsw i32 %6, %7
  %9 = tail call ptr @sat_solver_new() #10
  tail call void @sat_solver_setnvars(ptr noundef %9, i32 noundef %8) #10
  %.not = icmp eq i32 %5, 31
  br i1 %.not, label %._crit_edge, label %.lr.ph

.lr.ph:                                           ; preds = %1
  %10 = shl nsw i32 %0, 1
  %11 = getelementptr inbounds nuw i8, ptr %2, i64 4
  %12 = getelementptr inbounds nuw i8, ptr %2, i64 8
  %13 = getelementptr inbounds nuw i8, ptr %2, i64 12
  %14 = getelementptr inbounds nuw i8, ptr %2, i64 16
  %smax = tail call i32 @llvm.smax.i32(i32 %6, i32 1)
  %15 = shl i32 4, %0
  br label %16

16:                                               ; preds = %.lr.ph, %16
  %.034 = phi i32 [ 0, %.lr.ph ], [ %46, %16 ]
  %17 = add nsw i32 %.034, %7
  %18 = srem i32 %.034, %3
  %19 = lshr i32 %.034, %0
  %20 = srem i32 %19, %3
  %21 = add nuw nsw i32 %20, %3
  %22 = lshr i32 %.034, %10
  call void @llvm.lifetime.start.p0(i64 16, ptr nonnull %2) #10
  %23 = shl i32 %22, 3
  %24 = add i32 %23, %15
  %25 = or disjoint i32 %24, 1
  store i32 %25, ptr %2, align 16, !tbaa !3
  %26 = shl nuw nsw i32 %18, 1
  store i32 %26, ptr %11, align 4, !tbaa !3
  %27 = shl nsw i32 %21, 1
  store i32 %27, ptr %12, align 8, !tbaa !3
  %28 = shl nsw i32 %17, 1
  store i32 %28, ptr %13, align 4, !tbaa !3
  %29 = call i32 @sat_solver_addclause(ptr noundef %9, ptr noundef nonnull %2, ptr noundef nonnull %14) #10
  %30 = or disjoint i32 %24, 2
  %31 = or disjoint i32 %24, 3
  store i32 %31, ptr %2, align 16, !tbaa !3
  %32 = or disjoint i32 %26, 1
  store i32 %32, ptr %11, align 4, !tbaa !3
  store i32 %27, ptr %12, align 8, !tbaa !3
  store i32 %28, ptr %13, align 4, !tbaa !3
  %33 = call i32 @sat_solver_addclause(ptr noundef %9, ptr noundef nonnull %2, ptr noundef nonnull %14) #10
  %34 = add i32 %24, 4
  %35 = or disjoint i32 %34, 1
  store i32 %35, ptr %2, align 16, !tbaa !3
  store i32 %26, ptr %11, align 4, !tbaa !3
  %36 = or disjoint i32 %27, 1
  store i32 %36, ptr %12, align 8, !tbaa !3
  store i32 %28, ptr %13, align 4, !tbaa !3
  %37 = call i32 @sat_solver_addclause(ptr noundef %9, ptr noundef nonnull %2, ptr noundef nonnull %14) #10
  %38 = add i32 %24, 6
  %39 = or disjoint i32 %38, 1
  store i32 %39, ptr %2, align 16, !tbaa !3
  store i32 %32, ptr %11, align 4, !tbaa !3
  store i32 %36, ptr %12, align 8, !tbaa !3
  store i32 %28, ptr %13, align 4, !tbaa !3
  %40 = call i32 @sat_solver_addclause(ptr noundef %9, ptr noundef nonnull %2, ptr noundef nonnull %14) #10
  store i32 %24, ptr %2, align 16, !tbaa !3
  store i32 %26, ptr %11, align 4, !tbaa !3
  store i32 %27, ptr %12, align 8, !tbaa !3
  %41 = or disjoint i32 %28, 1
  store i32 %41, ptr %13, align 4, !tbaa !3
  %42 = call i32 @sat_solver_addclause(ptr noundef %9, ptr noundef nonnull %2, ptr noundef nonnull %14) #10
  store i32 %30, ptr %2, align 16, !tbaa !3
  store i32 %32, ptr %11, align 4, !tbaa !3
  store i32 %27, ptr %12, align 8, !tbaa !3
  store i32 %41, ptr %13, align 4, !tbaa !3
  %43 = call i32 @sat_solver_addclause(ptr noundef %9, ptr noundef nonnull %2, ptr noundef nonnull %14) #10
  store i32 %34, ptr %2, align 16, !tbaa !3
  store i32 %26, ptr %11, align 4, !tbaa !3
  store i32 %36, ptr %12, align 8, !tbaa !3
  store i32 %41, ptr %13, align 4, !tbaa !3
  %44 = call i32 @sat_solver_addclause(ptr noundef %9, ptr noundef nonnull %2, ptr noundef nonnull %14) #10
  store i32 %38, ptr %2, align 16, !tbaa !3
  store i32 %32, ptr %11, align 4, !tbaa !3
  store i32 %36, ptr %12, align 8, !tbaa !3
  store i32 %41, ptr %13, align 4, !tbaa !3
  %45 = call i32 @sat_solver_addclause(ptr noundef %9, ptr noundef nonnull %2, ptr noundef nonnull %14) #10
  call void @llvm.lifetime.end.p0(i64 16, ptr nonnull %2) #10
  %46 = add nuw nsw i32 %.034, 1
  %exitcond.not = icmp eq i32 %46, %smax
  br i1 %exitcond.not, label %._crit_edge, label %16, !llvm.loop !9

._crit_edge:                                      ; preds = %16, %1
  ret ptr %9
}